; Function Attrs: nounwind uwtable
define dso_local range(i32 0, 2) i32 @parse_signed_commit(ptr noundef %0, ptr noundef %1, ptr noundef %2, ptr noundef %3) local_unnamed_addr #0 {
  %5 = alloca i64, align 8
  call void @llvm.lifetime.start.p0(i64 8, ptr nonnull %5) #24
  %6 = load ptr, ptr @the_repository, align 8, !tbaa !4
  %7 = call ptr @repo_get_commit_buffer(ptr noundef %6, ptr noundef %0, ptr noundef nonnull %5)
  %8 = load i64, ptr %5, align 8, !tbaa !82
  %9 = call i32 @parse_buffer_signed_by_header(ptr noundef nonnull %7, i64 noundef %8, ptr noundef %1, ptr noundef %2, ptr noundef %3)
  %10 = load ptr, ptr @the_repository, align 8, !tbaa !4
  %11 = getelementptr inbounds nuw i8, ptr %10, i64 24
  %12 = load ptr, ptr %11, align 8, !tbaa !12
  %13 = getelementptr inbounds nuw i8, ptr %12, i64 112
  %14 = load ptr, ptr %13, align 8, !tbaa !76
  %15 = getelementptr i8, ptr %0, i64 64
  %.val.i = load i32, ptr %15, align 8, !tbaa !77
  %16 = load i32, ptr %14, align 8, !tbaa !70
  %17 = udiv i32 %.val.i, %16
  %18 = urem i32 %.val.i, %16
  %19 = getelementptr inbounds nuw i8, ptr %14, i64 8
  %20 = load i32, ptr %19, align 8, !tbaa !71
  %.not.i.i.i = icmp ugt i32 %20, %17
  br i1 %.not.i.i.i, label %._crit_edge4.i.i.i, label %buffer_slab_peek.exit.thread.i

._crit_edge4.i.i.i:                               ; preds = %4
  %.phi.trans.insert.i.i.i = getelementptr inbounds nuw i8, ptr %14, i64 16
  %.pre.i.i.i = load ptr, ptr %.phi.trans.insert.i.i.i, align 8, !tbaa !72
  %21 = zext i32 %17 to i64
  %22 = getelementptr inbounds nuw ptr, ptr %.pre.i.i.i, i64 %21
  %23 = load ptr, ptr %22, align 8, !tbaa !73
  %.not35.i.i.i = icmp eq ptr %23, null
  br i1 %.not35.i.i.i, label %buffer_slab_peek.exit.thread.i, label %buffer_slab_peek.exit.i

buffer_slab_peek.exit.i:                          ; preds = %._crit_edge4.i.i.i
  %24 = getelementptr inbounds nuw i8, ptr %14, i64 4
  %25 = load i32, ptr %24, align 4, !tbaa !67
  %26 = mul i32 %25, %18
  %27 = zext i32 %26 to i64
  %28 = getelementptr inbounds nuw %struct.commit_buffer, ptr %23, i64 %27
  %29 = load ptr, ptr %28, align 8, !tbaa !79
  %30 = icmp eq ptr %29, %7
  br i1 %30, label %repo_unuse_commit_buffer.exit, label %buffer_slab_peek.exit.thread.i

buffer_slab_peek.exit.thread.i:                   ; preds = %buffer_slab_peek.exit.i, %._crit_edge4.i.i.i, %4
  call void @free(ptr noundef nonnull %7) #24
  br label %repo_unuse_commit_buffer.exit

repo_unuse_commit_buffer.exit:                    ; preds = %buffer_slab_peek.exit.i, %buffer_slab_peek.exit.thread.i
  call void @llvm.lifetime.end.p0(i64 8, ptr nonnull %5) #24
  ret i32 %9
}